; Function Attrs: mustprogress nofree norecurse nosync nounwind willreturn memory(argmem: read) uwtable
define dso_local { <2 x float>, <2 x float> } @_ZNK30btKinematicCharacterController17getLinearVelocityEv(ptr nocapture noundef nonnull readonly align 8 dereferenceable(319) %this) unnamed_addr #0 align 2 {
entry:
  %m_walkDirection = getelementptr inbounds i8, ptr %this, i64 84
  %m_verticalVelocity = getelementptr inbounds i8, ptr %this, i64 36
  %m_up = getelementptr inbounds i8, ptr %this, i64 284
  %0 = load float, ptr %m_up, align 4
  %1 = load float, ptr %m_verticalVelocity, align 4
  %mul.i.i = fmul float %0, %1
  %arrayidx3.i.i = getelementptr inbounds i8, ptr %this, i64 288
  %2 = load <4 x float>, ptr %arrayidx3.i.i, align 8
  %3 = shufflevector <4 x float> %2, <4 x float> poison, <2 x i32> <i32 0, i32 poison>
  %arrayidx7.i.i = getelementptr inbounds i8, ptr %this, i64 292
  %4 = load float, ptr %arrayidx7.i.i, align 4
  %5 = load float, ptr %m_walkDirection, align 4
  %add.i = fadd float %mul.i.i, %5
  %arrayidx5.i = getelementptr inbounds i8, ptr %this, i64 88
  %6 = insertelement <2 x float> %3, float %1, i64 1
  %7 = insertelement <2 x float> poison, float %1, i64 0
  %8 = insertelement <2 x float> %7, float %4, i64 1
  %9 = fmul <2 x float> %6, %8
  %10 = load <2 x float>, ptr %arrayidx5.i, align 8
  %11 = fadd <2 x float> %9, %10
  %retval.sroa.0.0.vec.insert.i = insertelement <2 x float> poison, float %add.i, i64 0
  %12 = shufflevector <2 x float> %retval.sroa.0.0.vec.insert.i, <2 x float> %11, <2 x i32> <i32 0, i32 2>
  %13 = shufflevector <2 x float> <float poison, float 0.000000e+00>, <2 x float> %11, <2 x i32> <i32 3, i32 1>
  %.fca.0.insert.i = insertvalue { <2 x float>, <2 x float> } poison, <2 x float> %12, 0
  %.fca.1.insert.i = insertvalue { <2 x float>, <2 x float> } %.fca.0.insert.i, <2 x float> %13, 1
  ret { <2 x float>, <2 x float> } %.fca.1.insert.i
}